; Function Attrs: nounwind sspstrong uwtable
define dso_local void @aio_co_reschedule_self(ptr noundef %new_ctx) #0 {
entry:
  %data = alloca %struct.AioCoRescheduleSelf, align 8
  tail call void asm sideeffect "", "~{dirflag},~{fpsr},~{flags}"() #13, !srcloc !19
  %0 = tail call align 8 ptr @llvm.threadlocal.address.p0(ptr align 8 @co_tls_my_aiocontext)
  %1 = load ptr, ptr %0, align 8
  %tobool.not.i = icmp eq ptr %1, null
  br i1 %tobool.not.i, label %if.end.i, label %qemu_get_current_aio_context.exit

if.end.i:                                         ; preds = %entry
  %call1.i = tail call zeroext i1 @qemu_mutex_iothread_locked() #13
  br i1 %call1.i, label %if.then2.i, label %qemu_get_current_aio_context.exit

if.then2.i:                                       ; preds = %if.end.i
  %call3.i = tail call ptr @qemu_get_aio_context() #13
  br label %qemu_get_current_aio_context.exit

qemu_get_current_aio_context.exit:                ; preds = %entry, %if.end.i, %if.then2.i
  %retval.0.i = phi ptr [ %call3.i, %if.then2.i ], [ %1, %entry ], [ null, %if.end.i ]
  %cmp.not = icmp eq ptr %retval.0.i, %new_ctx
  br i1 %cmp.not, label %if.end, label %if.then

if.then:                                          ; preds = %qemu_get_current_aio_context.exit
  %call1 = tail call ptr @qemu_coroutine_self() #13
  store ptr %call1, ptr %data, align 8
  %new_ctx2 = getelementptr inbounds nuw i8, ptr %data, i64 8
  store ptr %new_ctx, ptr %new_ctx2, align 8
  %call.i = tail call noalias dereferenceable_or_null(56) ptr @g_malloc_n(i64 noundef 1, i64 noundef 56) #12
  store ptr %retval.0.i, ptr %call.i, align 8
  %.compoundliteral.sroa.2.0..sroa_idx.i = getelementptr inbounds nuw i8, ptr %call.i, i64 8
  store ptr @.str.5, ptr %.compoundliteral.sroa.2.0..sroa_idx.i, align 8
  %.compoundliteral.sroa.3.0..sroa_idx.i = getelementptr inbounds nuw i8, ptr %call.i, i64 16
  store ptr @aio_co_reschedule_self_bh, ptr %.compoundliteral.sroa.3.0..sroa_idx.i, align 8
  %.compoundliteral.sroa.4.0..sroa_idx.i = getelementptr inbounds nuw i8, ptr %call.i, i64 24
  store ptr %data, ptr %.compoundliteral.sroa.4.0..sroa_idx.i, align 8
  %.compoundliteral.sroa.5.0..sroa_idx.i = getelementptr inbounds nuw i8, ptr %call.i, i64 32
  store ptr null, ptr %.compoundliteral.sroa.5.0..sroa_idx.i, align 8
  %.compoundliteral.sroa.6.0..sroa_idx.i = getelementptr inbounds nuw i8, ptr %call.i, i64 40
  store i32 0, ptr %.compoundliteral.sroa.6.0..sroa_idx.i, align 8
  %.compoundliteral.sroa.71.0..sroa_idx.i = getelementptr inbounds nuw i8, ptr %call.i, i64 48
  store ptr null, ptr %.compoundliteral.sroa.71.0..sroa_idx.i, align 8
  %2 = atomicrmw or ptr %.compoundliteral.sroa.6.0..sroa_idx.i, i32 11 seq_cst, align 8
  %and.i.i = and i32 %2, 1
  %tobool.not.i.i = icmp eq i32 %and.i.i, 0
  br i1 %tobool.not.i.i, label %do.body2.preheader.i.i, label %if.end.i.i

do.body2.preheader.i.i:                           ; preds = %if.then
  %bh_list.i.i = getelementptr inbounds nuw i8, ptr %retval.0.i, i64 176
  %3 = ptrtoint ptr %call.i to i64
  br label %do.body2.i.i

do.body2.i.i:                                     ; preds = %do.body2.i.i, %do.body2.preheader.i.i
  %4 = load ptr, ptr %bh_list.i.i, align 8
  store ptr %4, ptr %.compoundliteral.sroa.5.0..sroa_idx.i, align 8
  %5 = ptrtoint ptr %4 to i64
  %6 = cmpxchg ptr %bh_list.i.i, i64 %5, i64 %3 seq_cst seq_cst, align 8
  %7 = extractvalue { i64, i1 } %6, 1
  %8 = extractvalue { i64, i1 } %6, 0
  %9 = inttoptr i64 %8 to ptr
  %cmp.not7.i.i = icmp eq ptr %4, %9
  %cmp.not.i.i = select i1 %7, i1 true, i1 %cmp.not7.i.i
  br i1 %cmp.not.i.i, label %if.end.i.i, label %do.body2.i.i, !llvm.loop !5

if.end.i.i:                                       ; preds = %do.body2.i.i, %if.then
  call void asm sideeffect "", "~{memory},~{dirflag},~{fpsr},~{flags}"() #13, !srcloc !7
  fence release
  %notified.i.i.i = getelementptr inbounds nuw i8, ptr %retval.0.i, i64 200
  store atomic i8 1, ptr %notified.i.i.i monotonic, align 8
  call void asm sideeffect "", "~{memory},~{dirflag},~{fpsr},~{flags}"() #13, !srcloc !8
  fence seq_cst
  %notify_me.i.i.i = getelementptr inbounds nuw i8, ptr %retval.0.i, i64 168
  %10 = load atomic i32, ptr %notify_me.i.i.i monotonic, align 8
  %tobool.not.i.i.i = icmp eq i32 %10, 0
  br i1 %tobool.not.i.i.i, label %aio_bh_schedule_oneshot_full.exit, label %if.then.i.i.i

if.then.i.i.i:                                    ; preds = %if.end.i.i
  %notifier.i.i.i = getelementptr inbounds nuw i8, ptr %retval.0.i, i64 204
  %call.i.i.i = call i32 @event_notifier_set(ptr noundef nonnull %notifier.i.i.i) #13
  br label %aio_bh_schedule_oneshot_full.exit

aio_bh_schedule_oneshot_full.exit:                ; preds = %if.end.i.i, %if.then.i.i.i
  call void @icount_notify_exit() #13
  call void @qemu_coroutine_yield() #13
  br label %if.end

if.end:                                           ; preds = %aio_bh_schedule_oneshot_full.exit, %qemu_get_current_aio_context.exit
  ret void
}